target datalayout = "e-m:e-p270:32:32-p271:32:32-p272:64:64-i64:64-i128:128-f80:128-n8:16:32:64-S128"
target triple = "x86_64-pc-linux-gnu"

@.str.25 = private unnamed_addr constant [10 x i8] c"<LIBRARY>\00", align 1
@.str.140 = private unnamed_addr constant [11 x i8] c"<LIB_ITEM>\00", align 1
@.str.141 = private unnamed_addr constant [12 x i8] c"<LINK_ITEM>\00", align 1

; Function Attrs: mustprogress nounwind uwtable
define internal noundef zeroext i1 @_ZN12_GLOBAL__N_120IsValidFeatureFormatERKNSt7__cxx1112basic_stringIcSt11char_traitsIcESaIcEEE(ptr noundef nonnull align 8 dereferenceable(32) %0) #5 {
  %2 = alloca ptr, align 8
  store ptr %0, ptr %2, align 8
  %3 = load ptr, ptr %2, align 8
  %4 = call noundef i64 @_ZNKSt7__cxx1112basic_stringIcSt11char_traitsIcESaIcEE4findEPKcm(ptr noundef nonnull align 8 dereferenceable(32) %3, ptr noundef @.str.25, i64 noundef 0) #3
  %5 = icmp ne i64 %4, -1
  br i1 %5, label %14, label %6

6:                                                ; preds = %1
  %7 = load ptr, ptr %2, align 8
  %8 = call noundef i64 @_ZNKSt7__cxx1112basic_stringIcSt11char_traitsIcESaIcEE4findEPKcm(ptr noundef nonnull align 8 dereferenceable(32) %7, ptr noundef @.str.140, i64 noundef 0) #3
  %9 = icmp ne i64 %8, -1
  br i1 %9, label %14, label %10

10:                                               ; preds = %6
  %11 = load ptr, ptr %2, align 8
  %12 = call noundef i64 @_ZNKSt7__cxx1112basic_stringIcSt11char_traitsIcESaIcEE4findEPKcm(ptr noundef nonnull align 8 dereferenceable(32) %11, ptr noundef @.str.141, i64 noundef 0) #3
  %13 = icmp ne i64 %12, -1
  br label %14

14:                                               ; preds = %10, %6, %1
  %15 = phi i1 [ true, %6 ], [ true, %1 ], [ %13, %10 ]
  ret i1 %15
}