; Function Attrs: mustprogress nounwind uwtable
define internal fastcc noundef zeroext i1 @_ZN12_GLOBAL__N_120IsValidFeatureFormatERKNSt7__cxx1112basic_stringIcSt11char_traitsIcESaIcEEE(ptr noundef nonnull align 8 dereferenceable(32) %0) unnamed_addr #4 {
  %2 = tail call noundef i64 @_ZNKSt7__cxx1112basic_stringIcSt11char_traitsIcESaIcEE4findEPKcm(ptr noundef nonnull align 8 dereferenceable(32) %0, ptr noundef nonnull @.str.25, i64 noundef 0) #19
  %.not = icmp eq i64 %2, -1
  br i1 %.not, label %3, label %8

3:                                                ; preds = %1
  %4 = tail call noundef i64 @_ZNKSt7__cxx1112basic_stringIcSt11char_traitsIcESaIcEE4findEPKcm(ptr noundef nonnull align 8 dereferenceable(32) %0, ptr noundef nonnull @.str.140, i64 noundef 0) #19
  %.not3 = icmp eq i64 %4, -1
  br i1 %.not3, label %5, label %8

5:                                                ; preds = %3
  %6 = tail call noundef i64 @_ZNKSt7__cxx1112basic_stringIcSt11char_traitsIcESaIcEE4findEPKcm(ptr noundef nonnull align 8 dereferenceable(32) %0, ptr noundef nonnull @.str.141, i64 noundef 0) #19
  %7 = icmp ne i64 %6, -1
  br label %8

8:                                                ; preds = %5, %3, %1
  %9 = phi i1 [ true, %3 ], [ true, %1 ], [ %7, %5 ]
  ret i1 %9
}